target datalayout = "e-m:e-p270:32:32-p271:32:32-p272:64:64-i64:64-i128:128-f80:128-n8:16:32:64-S128"
target triple = "x86_64-pc-linux-gnu"

%struct._7z_folder = type { i64, ptr, i64, ptr, i64, ptr, i64, i64, ptr, i8, i32, i64, i32, i64 }
%struct.anon.1 = type { i64, i64 }

; Function Attrs: nounwind uwtable
define internal i64 @folder_uncompressed_size(ptr noundef %0) #0 {
  %2 = alloca i64, align 8
  %3 = alloca ptr, align 8
  %4 = alloca i32, align 4
  %5 = alloca i32, align 4
  %6 = alloca i32, align 4
  %7 = alloca i32, align 4
  store ptr %0, ptr %3, align 8, !tbaa !66
  call void @llvm.lifetime.start.p0(i64 4, ptr %4) #12
  %8 = load ptr, ptr %3, align 8, !tbaa !66
  %9 = getelementptr inbounds nuw %struct._7z_folder, ptr %8, i32 0, i32 7
  %10 = load i64, ptr %9, align 8, !tbaa !147
  %11 = trunc i64 %10 to i32
  store i32 %11, ptr %4, align 4, !tbaa !11
  call void @llvm.lifetime.start.p0(i64 4, ptr %5) #12
  %12 = load ptr, ptr %3, align 8, !tbaa !66
  %13 = getelementptr inbounds nuw %struct._7z_folder, ptr %12, i32 0, i32 2
  %14 = load i64, ptr %13, align 8, !tbaa !288
  %15 = trunc i64 %14 to i32
  store i32 %15, ptr %5, align 4, !tbaa !11
  br label %16

16:                                               ; preds = %57, %1
  %17 = load i32, ptr %4, align 4, !tbaa !11
  %18 = add nsw i32 %17, -1
  store i32 %18, ptr %4, align 4, !tbaa !11
  %19 = icmp sge i32 %18, 0
  br i1 %19, label %20, label %58

20:                                               ; preds = %16
  call void @llvm.lifetime.start.p0(i64 4, ptr %6) #12
  store i32 0, ptr %6, align 4, !tbaa !11
  br label %21

21:                                               ; preds = %39, %20
  %22 = load i32, ptr %6, align 4, !tbaa !11
  %23 = load i32, ptr %5, align 4, !tbaa !11
  %24 = icmp ult i32 %22, %23
  br i1 %24, label %25, label %42

25:                                               ; preds = %21
  %26 = load ptr, ptr %3, align 8, !tbaa !66
  %27 = getelementptr inbounds nuw %struct._7z_folder, ptr %26, i32 0, i32 3
  %28 = load ptr, ptr %27, align 8, !tbaa !148
  %29 = load i32, ptr %6, align 4, !tbaa !11
  %30 = zext i32 %29 to i64
  %31 = getelementptr inbounds nuw %struct.anon.1, ptr %28, i64 %30
  %32 = getelementptr inbounds nuw %struct.anon.1, ptr %31, i32 0, i32 1
  %33 = load i64, ptr %32, align 8, !tbaa !289
  %34 = load i32, ptr %4, align 4, !tbaa !11
  %35 = sext i32 %34 to i64
  %36 = icmp eq i64 %33, %35
  br i1 %36, label %37, label %38

37:                                               ; preds = %25
  br label %42

38:                                               ; preds = %25
  br label %39

39:                                               ; preds = %38
  %40 = load i32, ptr %6, align 4, !tbaa !11
  %41 = add i32 %40, 1
  store i32 %41, ptr %6, align 4, !tbaa !11
  br label %21, !llvm.loop !296

42:                                               ; preds = %37, %21
  %43 = load i32, ptr %6, align 4, !tbaa !11
  %44 = load i32, ptr %5, align 4, !tbaa !11
  %45 = icmp uge i32 %43, %44
  br i1 %45, label %46, label %54

46:                                               ; preds = %42
  %47 = load ptr, ptr %3, align 8, !tbaa !66
  %48 = getelementptr inbounds nuw %struct._7z_folder, ptr %47, i32 0, i32 8
  %49 = load ptr, ptr %48, align 8, !tbaa !151
  %50 = load i32, ptr %4, align 4, !tbaa !11
  %51 = sext i32 %50 to i64
  %52 = getelementptr inbounds i64, ptr %49, i64 %51
  %53 = load i64, ptr %52, align 8, !tbaa !45
  store i64 %53, ptr %2, align 8
  store i32 1, ptr %7, align 4
  br label %55

54:                                               ; preds = %42
  store i32 0, ptr %7, align 4
  br label %55

55:                                               ; preds = %54, %46
  call void @llvm.lifetime.end.p0(i64 4, ptr %6) #12
  %56 = load i32, ptr %7, align 4
  switch i32 %56, label %59 [
    i32 0, label %57
  ]

57:                                               ; preds = %55
  br label %16, !llvm.loop !297

58:                                               ; preds = %16
  store i64 0, ptr %2, align 8
  store i32 1, ptr %7, align 4
  br label %59

59:                                               ; preds = %58, %55
  call void @llvm.lifetime.end.p0(i64 4, ptr %5) #12
  call void @llvm.lifetime.end.p0(i64 4, ptr %4) #12
  %60 = load i64, ptr %2, align 8
  ret i64 %60
}