; Function Attrs: nofree norecurse nosync nounwind memory(read, inaccessiblemem: none) uwtable
define internal fastcc i64 @folder_uncompressed_size(ptr noundef readonly captures(none) %0) unnamed_addr #14 {
  %2 = getelementptr inbounds nuw i8, ptr %0, i64 56
  %3 = load i64, ptr %2, align 8, !tbaa !138
  %4 = trunc i64 %3 to i32
  %5 = getelementptr inbounds nuw i8, ptr %0, i64 16
  %6 = load i64, ptr %5, align 8, !tbaa !139
  %7 = add i32 %4, -1
  %8 = icmp sgt i32 %4, 0
  br i1 %8, label %.preheader.lr.ph, label %.loopexit20

.preheader.lr.ph:                                 ; preds = %1
  %9 = and i64 %6, 4294967295
  %.not = icmp eq i64 %9, 0
  br i1 %.not, label %.thread18, label %.preheader.lr.ph.split.us

.preheader.lr.ph.split.us:                        ; preds = %.preheader.lr.ph
  %10 = getelementptr inbounds nuw i8, ptr %0, i64 24
  %11 = load ptr, ptr %10, align 8, !tbaa !140
  %12 = zext nneg i32 %7 to i64
  %wide.trip.count = and i64 %6, 4294967295
  br label %.preheader.us

.preheader.us:                                    ; preds = %.loopexit.us, %.preheader.lr.ph.split.us
  %indvars.iv26 = phi i64 [ %indvars.iv.next27, %.loopexit.us ], [ %12, %.preheader.lr.ph.split.us ]
  br label %14

13:                                               ; preds = %14
  %indvars.iv.next = add nuw nsw i64 %indvars.iv, 1
  %exitcond.not = icmp eq i64 %indvars.iv.next, %wide.trip.count
  br i1 %exitcond.not, label %.thread18.loopexit, label %14, !llvm.loop !141

14:                                               ; preds = %.preheader.us, %13
  %indvars.iv = phi i64 [ 0, %.preheader.us ], [ %indvars.iv.next, %13 ]
  %15 = getelementptr inbounds nuw %struct.anon.1, ptr %11, i64 %indvars.iv, i32 1
  %16 = load i64, ptr %15, align 8, !tbaa !142
  %17 = icmp eq i64 %16, %indvars.iv26
  br i1 %17, label %.loopexit.us, label %13

.loopexit.us:                                     ; preds = %14
  %indvars.iv.next27 = add nsw i64 %indvars.iv26, -1
  %18 = icmp sgt i64 %indvars.iv26, 0
  br i1 %18, label %.preheader.us, label %.loopexit20

.thread18.loopexit:                               ; preds = %13
  %19 = trunc nuw nsw i64 %indvars.iv26 to i32
  br label %.thread18

.thread18:                                        ; preds = %.thread18.loopexit, %.preheader.lr.ph
  %.lcssa21 = phi i32 [ %7, %.preheader.lr.ph ], [ %19, %.thread18.loopexit ]
  %20 = getelementptr inbounds nuw i8, ptr %0, i64 64
  %21 = load ptr, ptr %20, align 8, !tbaa !144
  %22 = zext nneg i32 %.lcssa21 to i64
  %23 = getelementptr inbounds nuw i64, ptr %21, i64 %22
  %24 = load i64, ptr %23, align 8, !tbaa !38
  br label %.loopexit20

.loopexit20:                                      ; preds = %.loopexit.us, %1, %.thread18
  %.2 = phi i64 [ %24, %.thread18 ], [ 0, %1 ], [ 0, %.loopexit.us ]
  ret i64 %.2
}